target datalayout = "e-m:e-p270:32:32-p271:32:32-p272:64:64-i64:64-i128:128-f80:128-n8:16:32:64-S128"
target triple = "x86_64-pc-linux-gnu"

@unicode_prop_ID_Continue1_index = internal constant [63 x i8] c"\FA\06\00p\09\00\F0\0A@W\0C\00\F0\0D`\C7\0F \EA\17@\05\1B\00A \00\0C\A8\807\AA P\FE :\0D!t\11\01Z\14!D\19\81Z\1D\A1\F5j!E\D2A\AF\E2!\F0\01\0E", align 16

; Function Attrs: nounwind uwtable
define dso_local i32 @lre_is_id_start(i32 noundef %0) #0 {
  %2 = alloca i32, align 4
  store i32 %0, ptr %2, align 4
  %3 = load i32, ptr %2, align 4
  %4 = call i32 @lre_is_in_table(i32 noundef %3, ptr noundef @unicode_prop_ID_Start_table, ptr noundef @unicode_prop_ID_Start_index, i32 noundef 35)
  ret i32 %4
}

; Function Attrs: nounwind uwtable
define dso_local i32 @lre_is_id_continue(i32 noundef %0) #0 {
  %2 = alloca i32, align 4
  store i32 %0, ptr %2, align 4
  %3 = load i32, ptr %2, align 4
  %4 = call i32 @lre_is_id_start(i32 noundef %3)
  %5 = icmp ne i32 %4, 0
  br i1 %5, label %10, label %6

6:                                                ; preds = %1
  %7 = load i32, ptr %2, align 4
  %8 = call i32 @lre_is_in_table(i32 noundef %7, ptr noundef @unicode_prop_ID_Continue1_table, ptr noundef @unicode_prop_ID_Continue1_index, i32 noundef 21)
  %9 = icmp ne i32 %8, 0
  br label %10

10:                                               ; preds = %6, %1
  %11 = phi i1 [ true, %1 ], [ %9, %6 ]
  %12 = zext i1 %11 to i32
  ret i32 %12
}