; Function Attrs: nofree norecurse nosync nounwind memory(read, inaccessiblemem: none) uwtable
define dso_local i32 @lre_is_id_continue(i32 noundef %0) local_unnamed_addr #2 {
  %2 = tail call fastcc i32 @lre_is_in_table(i32 noundef %0, ptr noundef nonnull @unicode_prop_ID_Start_table, ptr noundef nonnull @unicode_prop_ID_Start_index, i32 noundef 35), !range !12
  %.not = icmp eq i32 %2, 0
  br i1 %.not, label %3, label %5

3:                                                ; preds = %1
  %4 = tail call fastcc i32 @lre_is_in_table(i32 noundef %0, ptr noundef nonnull @unicode_prop_ID_Continue1_table, ptr noundef nonnull @unicode_prop_ID_Continue1_index, i32 noundef 21), !range !12
  br label %5

5:                                                ; preds = %3, %1
  %6 = phi i32 [ 1, %1 ], [ %4, %3 ]
  ret i32 %6
}